; Function Attrs: nofree nounwind uwtable
define dso_local void @end_progress_monitor(ptr noundef readonly captures(none) %0) local_unnamed_addr #1 {
  %2 = load ptr, ptr %0, align 8, !tbaa !4
  %3 = getelementptr inbounds nuw i8, ptr %2, i64 124
  %4 = load i32, ptr %3, align 4, !tbaa !13
  %5 = icmp eq i32 %4, 0
  br i1 %5, label %6, label %11

6:                                                ; preds = %1
  %7 = load ptr, ptr @stderr, align 8, !tbaa !43
  %8 = tail call i64 @fwrite(ptr nonnull @.str, i64 18, i64 1, ptr %7) #11
  %9 = load ptr, ptr @stderr, align 8, !tbaa !43
  %10 = tail call i32 @fflush(ptr noundef %9)
  br label %11

11:                                               ; preds = %6, %1
  ret void
}